target datalayout = "e-m:e-p270:32:32-p271:32:32-p272:64:64-i64:64-i128:128-f80:128-n8:16:32:64-S128"
target triple = "x86_64-pc-linux-gnu"

%struct.Vec_Int_t_ = type { i32, i32, ptr }
%struct.Gia_Man_t_ = type { ptr, ptr, i32, i32, i32, i32, ptr, ptr, i32, i32, i32, ptr, ptr, %struct.Vec_Int_t_, %struct.Vec_Int_t_, i32, i32, i32, %struct.Vec_Int_t_, ptr, ptr, ptr, i32, i32, i32, i32, ptr, ptr, ptr, ptr, ptr, i32, i32, ptr, i32, ptr, ptr, ptr, ptr, ptr, ptr, ptr, ptr, ptr, ptr, ptr, ptr, ptr, ptr, ptr, ptr, ptr, ptr, %struct.Vec_Int_t_, %struct.Vec_Int_t_, ptr, ptr, ptr, ptr, ptr, ptr, ptr, ptr, ptr, ptr, ptr, ptr, ptr, ptr, ptr, ptr, ptr, ptr, ptr, ptr, ptr, i32, float, float, ptr, ptr, i32, ptr, ptr, ptr, ptr, ptr, ptr, ptr, ptr, ptr, ptr, ptr, ptr, ptr, ptr, ptr, i64, i64, ptr, ptr, i32, i32, i32, i32, i32, i32, i32, i32, i32, i32, i32, i32, ptr, ptr, ptr, ptr, ptr, ptr, ptr, ptr, i32, i32, i32, ptr, i32, i32, ptr, ptr, ptr, ptr, ptr, ptr, i32, i32, ptr, %struct.Vec_Int_t_, %struct.Vec_Int_t_, %struct.Vec_Int_t_, ptr, ptr, ptr, i32, i32, i32, i32, ptr, ptr, ptr, ptr, ptr }
%struct.Cec_ParCec_t_ = type { i32, i32, i32, i32, i32, i32, i32, i32, i32 }

@.str.18 = private unnamed_addr constant [25 x i8] c"Verification succeeded.\0A\00", align 1
@.str.19 = private unnamed_addr constant [22 x i8] c"Verification failed.\0A\00", align 1
@.str.20 = private unnamed_addr constant [25 x i8] c"Verification undecided.\0A\00", align 1

; Function Attrs: inlinehint nounwind uwtable
define internal i32 @Vec_IntSize(ptr noundef %0) #2 {
  %2 = alloca ptr, align 8
  store ptr %0, ptr %2, align 8, !tbaa !25
  %3 = load ptr, ptr %2, align 8, !tbaa !25
  %4 = getelementptr inbounds nuw %struct.Vec_Int_t_, ptr %3, i32 0, i32 1
  %5 = load i32, ptr %4, align 4, !tbaa !61
  ret i32 %5
}

; Function Attrs: inlinehint nounwind uwtable
define internal i32 @Gia_ManPoNum(ptr noundef %0) #2 {
  %2 = alloca ptr, align 8
  store ptr %0, ptr %2, align 8, !tbaa !29
  %3 = load ptr, ptr %2, align 8, !tbaa !29
  %4 = getelementptr inbounds nuw %struct.Gia_Man_t_, ptr %3, i32 0, i32 12
  %5 = load ptr, ptr %4, align 8, !tbaa !107
  %6 = call i32 @Vec_IntSize(ptr noundef %5)
  %7 = load ptr, ptr %2, align 8, !tbaa !29
  %8 = getelementptr inbounds nuw %struct.Gia_Man_t_, ptr %7, i32 0, i32 2
  %9 = load i32, ptr %8, align 8, !tbaa !108
  %10 = sub nsw i32 %6, %9
  ret i32 %10
}

; Function Attrs: nounwind uwtable
define i32 @Ssc_PerformVerification(ptr noundef %0, ptr noundef %1, ptr noundef %2) #0 {
  %4 = alloca ptr, align 8
  %5 = alloca ptr, align 8
  %6 = alloca ptr, align 8
  %7 = alloca i32, align 4
  %8 = alloca %struct.Cec_ParCec_t_, align 4
  %9 = alloca ptr, align 8
  %10 = alloca ptr, align 8
  %11 = alloca ptr, align 8
  %12 = alloca ptr, align 8
  %13 = alloca ptr, align 8
  store ptr %0, ptr %4, align 8, !tbaa !29
  store ptr %1, ptr %5, align 8, !tbaa !29
  store ptr %2, ptr %6, align 8, !tbaa !29
  call void @llvm.lifetime.start.p0(i64 4, ptr %7) #13
  call void @llvm.lifetime.start.p0(i64 36, ptr %8) #13
  call void @llvm.lifetime.start.p0(i64 8, ptr %9) #13
  store ptr %8, ptr %9, align 8, !tbaa !105
  call void @llvm.lifetime.start.p0(i64 8, ptr %10) #13
  %14 = load ptr, ptr %6, align 8, !tbaa !29
  %15 = load ptr, ptr %4, align 8, !tbaa !29
  %16 = call i32 @Gia_ManPoNum(ptr noundef %15)
  %17 = call ptr @Gia_ManDupAndOr(ptr noundef %14, i32 noundef %16, i32 noundef 1, i32 noundef 0)
  store ptr %17, ptr %10, align 8, !tbaa !29
  call void @llvm.lifetime.start.p0(i64 8, ptr %11) #13
  %18 = load ptr, ptr %4, align 8, !tbaa !29
  %19 = load ptr, ptr %10, align 8, !tbaa !29
  %20 = call ptr @Gia_ManMiter(ptr noundef %18, ptr noundef %19, i32 noundef 0, i32 noundef 0, i32 noundef 0, i32 noundef 1, i32 noundef 0)
  store ptr %20, ptr %11, align 8, !tbaa !29
  call void @llvm.lifetime.start.p0(i64 8, ptr %12) #13
  %21 = load ptr, ptr %5, align 8, !tbaa !29
  %22 = load ptr, ptr %10, align 8, !tbaa !29
  %23 = call ptr @Gia_ManMiter(ptr noundef %21, ptr noundef %22, i32 noundef 0, i32 noundef 0, i32 noundef 0, i32 noundef 1, i32 noundef 0)
  store ptr %23, ptr %12, align 8, !tbaa !29
  call void @llvm.lifetime.start.p0(i64 8, ptr %13) #13
  %24 = load ptr, ptr %11, align 8, !tbaa !29
  %25 = load ptr, ptr %12, align 8, !tbaa !29
  %26 = call ptr @Gia_ManMiter(ptr noundef %24, ptr noundef %25, i32 noundef 0, i32 noundef 1, i32 noundef 0, i32 noundef 0, i32 noundef 0)
  store ptr %26, ptr %13, align 8, !tbaa !29
  %27 = load ptr, ptr %11, align 8, !tbaa !29
  call void @Gia_ManStop(ptr noundef %27)
  %28 = load ptr, ptr %12, align 8, !tbaa !29
  call void @Gia_ManStop(ptr noundef %28)
  %29 = load ptr, ptr %10, align 8, !tbaa !29
  call void @Gia_ManStop(ptr noundef %29)
  %30 = load ptr, ptr %9, align 8, !tbaa !105
  call void @Cec_ManCecSetDefaultParams(ptr noundef %30)
  %31 = load ptr, ptr %13, align 8, !tbaa !29
  %32 = load ptr, ptr %9, align 8, !tbaa !105
  %33 = call i32 @Cec_ManVerify(ptr noundef %31, ptr noundef %32)
  store i32 %33, ptr %7, align 4, !tbaa !60
  %34 = load ptr, ptr %13, align 8, !tbaa !29
  call void @Gia_ManStop(ptr noundef %34)
  %35 = load i32, ptr %7, align 4, !tbaa !60
  %36 = icmp eq i32 %35, 1
  br i1 %36, label %37, label %39

37:                                               ; preds = %3
  %38 = call i32 (ptr, ...) @printf(ptr noundef @.str.18)
  br label %52

39:                                               ; preds = %3
  %40 = load i32, ptr %7, align 4, !tbaa !60
  %41 = icmp eq i32 %40, 0
  br i1 %41, label %42, label %44

42:                                               ; preds = %39
  %43 = call i32 (ptr, ...) @printf(ptr noundef @.str.19)
  br label %51

44:                                               ; preds = %39
  %45 = load i32, ptr %7, align 4, !tbaa !60
  %46 = icmp eq i32 %45, -1
  br i1 %46, label %47, label %49

47:                                               ; preds = %44
  %48 = call i32 (ptr, ...) @printf(ptr noundef @.str.20)
  br label %50

49:                                               ; preds = %44
  br label %50

50:                                               ; preds = %49, %47
  br label %51

51:                                               ; preds = %50, %42
  br label %52

52:                                               ; preds = %51, %37
  %53 = load i32, ptr %7, align 4, !tbaa !60
  call void @llvm.lifetime.end.p0(i64 8, ptr %13) #13
  call void @llvm.lifetime.end.p0(i64 8, ptr %12) #13
  call void @llvm.lifetime.end.p0(i64 8, ptr %11) #13
  call void @llvm.lifetime.end.p0(i64 8, ptr %10) #13
  call void @llvm.lifetime.end.p0(i64 8, ptr %9) #13
  call void @llvm.lifetime.end.p0(i64 36, ptr %8) #13
  call void @llvm.lifetime.end.p0(i64 4, ptr %7) #13
  ret i32 %53
}