; Function Attrs: nounwind uwtable
define i32 @Ssc_PerformVerification(ptr noundef %0, ptr noundef %1, ptr noundef %2) local_unnamed_addr #2 {
  %4 = alloca %struct.Cec_ParCec_t_, align 4
  call void @llvm.lifetime.start.p0(i64 36, ptr nonnull %4) #19
  %5 = getelementptr i8, ptr %0, i64 16
  %.val = load i32, ptr %5, align 8, !tbaa !102
  %6 = getelementptr i8, ptr %0, i64 72
  %.val20 = load ptr, ptr %6, align 8, !tbaa !103
  %7 = getelementptr i8, ptr %.val20, i64 4
  %.val20.val = load i32, ptr %7, align 4, !tbaa !52
  %8 = sub nsw i32 %.val20.val, %.val
  %9 = tail call ptr @Gia_ManDupAndOr(ptr noundef %2, i32 noundef %8, i32 noundef 1, i32 noundef 0) #19
  %10 = tail call ptr @Gia_ManMiter(ptr noundef %0, ptr noundef %9, i32 noundef 0, i32 noundef 0, i32 noundef 0, i32 noundef 1, i32 noundef 0) #19
  %11 = tail call ptr @Gia_ManMiter(ptr noundef %1, ptr noundef %9, i32 noundef 0, i32 noundef 0, i32 noundef 0, i32 noundef 1, i32 noundef 0) #19
  %12 = tail call ptr @Gia_ManMiter(ptr noundef %10, ptr noundef %11, i32 noundef 0, i32 noundef 1, i32 noundef 0, i32 noundef 0, i32 noundef 0) #19
  tail call void @Gia_ManStop(ptr noundef %10) #19
  tail call void @Gia_ManStop(ptr noundef %11) #19
  tail call void @Gia_ManStop(ptr noundef %9) #19
  call void @Cec_ManCecSetDefaultParams(ptr noundef nonnull %4) #19
  %13 = call i32 @Cec_ManVerify(ptr noundef %12, ptr noundef nonnull %4) #19
  call void @Gia_ManStop(ptr noundef %12) #19
  %switch.tableidx = add i32 %13, 1
  %14 = icmp ult i32 %switch.tableidx, 3
  br i1 %14, label %switch.lookup, label %16

switch.lookup:                                    ; preds = %3
  %15 = zext nneg i32 %switch.tableidx to i64
  %switch.gep = getelementptr inbounds nuw [3 x ptr], ptr @switch.table.Ssc_PerformVerification, i64 0, i64 %15
  %switch.load = load ptr, ptr %switch.gep, align 8
  %puts18 = call i32 @puts(ptr nonnull dereferenceable(1) %switch.load)
  br label %16

16:                                               ; preds = %3, %switch.lookup
  call void @llvm.lifetime.end.p0(i64 36, ptr nonnull %4) #19
  ret i32 %13
}